target datalayout = "e-m:e-p270:32:32-p271:32:32-p272:64:64-i64:64-i128:128-f80:128-n8:16:32:64-S128"
target triple = "x86_64-pc-linux-gnu"

%"class.arrow::util::Float16" = type { i16 }

; Function Attrs: mustprogress nounwind uwtable
define linkonce_odr void @_ZN5arrow4util7Float16C2Etb(ptr noundef nonnull align 2 dereferenceable(2) %0, i16 noundef zeroext %1, i1 noundef zeroext %2) unnamed_addr #2 comdat align 2 {
  %4 = alloca ptr, align 8
  %5 = alloca i16, align 2
  %6 = alloca i8, align 1
  store ptr %0, ptr %4, align 8, !tbaa !3
  store i16 %1, ptr %5, align 2, !tbaa !13
  %7 = zext i1 %2 to i8
  store i8 %7, ptr %6, align 1, !tbaa !25
  %8 = load ptr, ptr %4, align 8
  %9 = getelementptr inbounds nuw %"class.arrow::util::Float16", ptr %8, i32 0, i32 0
  %10 = load i16, ptr %5, align 2, !tbaa !13
  store i16 %10, ptr %9, align 2, !tbaa !8
  ret void
}

; Function Attrs: mustprogress uwtable
define linkonce_odr i16 @_ZN5arrow4util7Float168FromBitsEt(i16 noundef zeroext %0) #0 comdat align 2 {
  %2 = alloca %"class.arrow::util::Float16", align 2
  %3 = alloca i16, align 2
  store i16 %0, ptr %3, align 2, !tbaa !13
  %4 = load i16, ptr %3, align 2, !tbaa !13
  call void @_ZN5arrow4util7Float16C2Etb(ptr noundef nonnull align 2 dereferenceable(2) %2, i16 noundef zeroext %4, i1 noundef zeroext false)
  %5 = getelementptr inbounds nuw %"class.arrow::util::Float16", ptr %2, i32 0, i32 0
  %6 = load i16, ptr %5, align 2
  ret i16 %6
}

; Function Attrs: mustprogress nounwind uwtable
define internal noundef zeroext i16 @_ZN5arrow4util12_GLOBAL__N_115BinaryConverterImE10ToBinary16Em(i64 noundef %0) #2 align 2 {
  %2 = alloca i16, align 2
  %3 = alloca i64, align 8
  %4 = alloca i16, align 2
  %5 = alloca i64, align 8
  %6 = alloca i16, align 2
  %7 = alloca i16, align 2
  %8 = alloca i16, align 2
  %9 = alloca i64, align 8
  %10 = alloca i64, align 8
  %11 = alloca i16, align 2
  %12 = alloca i32, align 4
  %13 = alloca i64, align 8
  %14 = alloca i16, align 2
  %15 = alloca i16, align 2
  %16 = alloca i64, align 8
  %17 = alloca i16, align 2
  store i64 %0, ptr %3, align 8, !tbaa !18
  call void @llvm.lifetime.start.p0(i64 2, ptr %4) #6
  %18 = load i64, ptr %3, align 8, !tbaa !18
  %19 = lshr i64 %18, 48
  %20 = and i64 %19, 32768
  %21 = trunc i64 %20 to i16
  store i16 %21, ptr %4, align 2, !tbaa !13
  call void @llvm.lifetime.start.p0(i64 8, ptr %5) #6
  %22 = load i64, ptr %3, align 8, !tbaa !18
  %23 = and i64 %22, 9218868437227405312
  store i64 %23, ptr %5, align 8, !tbaa !18
  call void @llvm.lifetime.start.p0(i64 2, ptr %6) #6
  %24 = load i64, ptr %5, align 8, !tbaa !18
  %25 = lshr i64 %24, 52
  %26 = trunc i64 %25 to i16
  store i16 %26, ptr %6, align 2, !tbaa !13
  call void @llvm.lifetime.start.p0(i64 2, ptr %7) #6
  %27 = load i16, ptr %6, align 2, !tbaa !13
  %28 = sext i16 %27 to i32
  %29 = sub nsw i32 %28, 1023
  %30 = trunc i32 %29 to i16
  store i16 %30, ptr %7, align 2, !tbaa !13
  call void @llvm.lifetime.start.p0(i64 2, ptr %8) #6
  %31 = load i16, ptr %7, align 2, !tbaa !13
  %32 = sext i16 %31 to i32
  %33 = add nsw i32 %32, 15
  %34 = trunc i32 %33 to i16
  store i16 %34, ptr %8, align 2, !tbaa !13
  call void @llvm.lifetime.start.p0(i64 8, ptr %9) #6
  %35 = load i64, ptr %3, align 8, !tbaa !18
  %36 = and i64 %35, 4503599627370495
  store i64 %36, ptr %9, align 8, !tbaa !18
  call void @llvm.lifetime.start.p0(i64 8, ptr %10) #6
  store i64 2199023255552, ptr %10, align 8, !tbaa !18
  %37 = load i16, ptr %8, align 2, !tbaa !13
  %38 = sext i16 %37 to i32
  %39 = icmp sge i32 %38, 31
  br i1 %39, label %40, label %67

40:                                               ; preds = %1
  %41 = load i64, ptr %5, align 8, !tbaa !18
  %42 = icmp eq i64 %41, 9218868437227405312
  br i1 %42, label %43, label %62

43:                                               ; preds = %40
  %44 = load i64, ptr %9, align 8, !tbaa !18
  %45 = icmp ne i64 %44, 0
  br i1 %45, label %46, label %62

46:                                               ; preds = %43
  call void @llvm.lifetime.start.p0(i64 2, ptr %11) #6
  %47 = load i64, ptr %9, align 8, !tbaa !18
  %48 = lshr i64 %47, 42
  %49 = trunc i64 %48 to i16
  store i16 %49, ptr %11, align 2, !tbaa !13
  %50 = load i16, ptr %11, align 2, !tbaa !13
  %51 = zext i16 %50 to i32
  %52 = icmp eq i32 %51, 0
  br i1 %52, label %53, label %54

53:                                               ; preds = %46
  store i16 1, ptr %11, align 2, !tbaa !13
  br label %54

54:                                               ; preds = %53, %46
  %55 = load i16, ptr %4, align 2, !tbaa !13
  %56 = zext i16 %55 to i32
  %57 = or i32 %56, 31744
  %58 = load i16, ptr %11, align 2, !tbaa !13
  %59 = zext i16 %58 to i32
  %60 = or i32 %57, %59
  %61 = trunc i32 %60 to i16
  store i16 %61, ptr %2, align 2
  store i32 1, ptr %12, align 4
  call void @llvm.lifetime.end.p0(i64 2, ptr %11) #6
  br label %131

62:                                               ; preds = %43, %40
  %63 = load i16, ptr %4, align 2, !tbaa !13
  %64 = zext i16 %63 to i32
  %65 = or i32 %64, 31744
  %66 = trunc i32 %65 to i16
  store i16 %66, ptr %2, align 2
  store i32 1, ptr %12, align 4
  br label %131

67:                                               ; preds = %1
  %68 = load i16, ptr %8, align 2, !tbaa !13
  %69 = sext i16 %68 to i32
  %70 = icmp sle i32 %69, 0
  br i1 %70, label %71, label %106

71:                                               ; preds = %67
  %72 = load i16, ptr %8, align 2, !tbaa !13
  %73 = sext i16 %72 to i32
  %74 = icmp slt i32 %73, -10
  br i1 %74, label %75, label %77

75:                                               ; preds = %71
  %76 = load i16, ptr %4, align 2, !tbaa !13
  store i16 %76, ptr %2, align 2
  store i32 1, ptr %12, align 4
  br label %131

77:                                               ; preds = %71
  call void @llvm.lifetime.start.p0(i64 8, ptr %13) #6
  %78 = load i64, ptr %9, align 8, !tbaa !18
  %79 = or i64 4503599627370496, %78
  store i64 %79, ptr %13, align 8, !tbaa !18
  %80 = load i16, ptr %8, align 2, !tbaa !13
  %81 = sext i16 %80 to i32
  %82 = sub nsw i32 1, %81
  %83 = load i64, ptr %13, align 8, !tbaa !18
  %84 = zext i32 %82 to i64
  %85 = lshr i64 %83, %84
  store i64 %85, ptr %13, align 8, !tbaa !18
  %86 = load i64, ptr %13, align 8, !tbaa !18
  %87 = and i64 %86, 8796093022207
  %88 = icmp ne i64 %87, 2199023255552
  br i1 %88, label %93, label %89

89:                                               ; preds = %77
  %90 = load i64, ptr %9, align 8, !tbaa !18
  %91 = and i64 %90, 2047
  %92 = icmp ne i64 %91, 0
  br i1 %92, label %93, label %96

93:                                               ; preds = %89, %77
  %94 = load i64, ptr %13, align 8, !tbaa !18
  %95 = add i64 %94, 2199023255552
  store i64 %95, ptr %13, align 8, !tbaa !18
  br label %96

96:                                               ; preds = %93, %89
  call void @llvm.lifetime.start.p0(i64 2, ptr %14) #6
  %97 = load i64, ptr %13, align 8, !tbaa !18
  %98 = lshr i64 %97, 42
  %99 = trunc i64 %98 to i16
  store i16 %99, ptr %14, align 2, !tbaa !13
  %100 = load i16, ptr %4, align 2, !tbaa !13
  %101 = zext i16 %100 to i32
  %102 = load i16, ptr %14, align 2, !tbaa !13
  %103 = zext i16 %102 to i32
  %104 = add nsw i32 %101, %103
  %105 = trunc i32 %104 to i16
  store i16 %105, ptr %2, align 2
  store i32 1, ptr %12, align 4
  call void @llvm.lifetime.end.p0(i64 2, ptr %14) #6
  call void @llvm.lifetime.end.p0(i64 8, ptr %13) #6
  br label %131

106:                                              ; preds = %67
  call void @llvm.lifetime.start.p0(i64 2, ptr %15) #6
  %107 = load i16, ptr %8, align 2, !tbaa !13
  %108 = zext i16 %107 to i32
  %109 = shl i32 %108, 10
  %110 = trunc i32 %109 to i16
  store i16 %110, ptr %15, align 2, !tbaa !13
  call void @llvm.lifetime.start.p0(i64 8, ptr %16) #6
  %111 = load i64, ptr %9, align 8, !tbaa !18
  store i64 %111, ptr %16, align 8, !tbaa !18
  %112 = load i64, ptr %16, align 8, !tbaa !18
  %113 = and i64 %112, 8796093022207
  %114 = icmp ne i64 %113, 2199023255552
  br i1 %114, label %115, label %118

115:                                              ; preds = %106
  %116 = load i64, ptr %16, align 8, !tbaa !18
  %117 = add i64 %116, 2199023255552
  store i64 %117, ptr %16, align 8, !tbaa !18
  br label %118

118:                                              ; preds = %115, %106
  call void @llvm.lifetime.start.p0(i64 2, ptr %17) #6
  %119 = load i64, ptr %16, align 8, !tbaa !18
  %120 = lshr i64 %119, 42
  %121 = trunc i64 %120 to i16
  store i16 %121, ptr %17, align 2, !tbaa !13
  %122 = load i16, ptr %4, align 2, !tbaa !13
  %123 = zext i16 %122 to i32
  %124 = load i16, ptr %15, align 2, !tbaa !13
  %125 = zext i16 %124 to i32
  %126 = add nsw i32 %123, %125
  %127 = load i16, ptr %17, align 2, !tbaa !13
  %128 = zext i16 %127 to i32
  %129 = add nsw i32 %126, %128
  %130 = trunc i32 %129 to i16
  store i16 %130, ptr %2, align 2
  store i32 1, ptr %12, align 4
  call void @llvm.lifetime.end.p0(i64 2, ptr %17) #6
  call void @llvm.lifetime.end.p0(i64 8, ptr %16) #6
  call void @llvm.lifetime.end.p0(i64 2, ptr %15) #6
  br label %131

131:                                              ; preds = %118, %96, %75, %62, %54
  call void @llvm.lifetime.end.p0(i64 8, ptr %10) #6
  call void @llvm.lifetime.end.p0(i64 8, ptr %9) #6
  call void @llvm.lifetime.end.p0(i64 2, ptr %8) #6
  call void @llvm.lifetime.end.p0(i64 2, ptr %7) #6
  call void @llvm.lifetime.end.p0(i64 2, ptr %6) #6
  call void @llvm.lifetime.end.p0(i64 8, ptr %5) #6
  call void @llvm.lifetime.end.p0(i64 2, ptr %4) #6
  %132 = load i16, ptr %2, align 2
  ret i16 %132
}

; Function Attrs: inlinehint mustprogress nounwind uwtable
define linkonce_odr noundef i64 @_ZN5arrow4util8SafeCopyImdEENSt9enable_ifIXaaaasr3stdE23is_trivially_copyable_vIT0_Esr3stdE23is_trivially_copyable_vIT_EeqstS3_stS4_ES4_E4typeES3_(double noundef %0) #3 comdat {
  %2 = alloca double, align 8
  %3 = alloca i64, align 8
  store double %0, ptr %2, align 8, !tbaa !21
  call void @llvm.lifetime.start.p0(i64 8, ptr %3) #6
  call void @llvm.memcpy.p0.p0.i64(ptr align 8 %3, ptr align 1 %2, i64 8, i1 false)
  %4 = load i64, ptr %3, align 8, !tbaa !18
  call void @llvm.lifetime.end.p0(i64 8, ptr %3) #6
  ret i64 %4
}

; Function Attrs: mustprogress uwtable
define i16 @_ZN5arrow4util7Float1610FromDoubleEd(double noundef %0) #0 align 2 {
  %2 = alloca %"class.arrow::util::Float16", align 2
  %3 = alloca double, align 8
  %4 = alloca i64, align 8
  store double %0, ptr %3, align 8, !tbaa !21
  call void @llvm.lifetime.start.p0(i64 8, ptr %4) #6
  %5 = load double, ptr %3, align 8, !tbaa !21
  %6 = call noundef i64 @_ZN5arrow4util8SafeCopyImdEENSt9enable_ifIXaaaasr3stdE23is_trivially_copyable_vIT0_Esr3stdE23is_trivially_copyable_vIT_EeqstS3_stS4_ES4_E4typeES3_(double noundef %5)
  store i64 %6, ptr %4, align 8, !tbaa !18
  %7 = load i64, ptr %4, align 8, !tbaa !18
  %8 = call noundef zeroext i16 @_ZN5arrow4util12_GLOBAL__N_115BinaryConverterImE10ToBinary16Em(i64 noundef %7)
  %9 = call i16 @_ZN5arrow4util7Float168FromBitsEt(i16 noundef zeroext %8)
  %10 = getelementptr inbounds nuw %"class.arrow::util::Float16", ptr %2, i32 0, i32 0
  store i16 %9, ptr %10, align 2
  call void @llvm.lifetime.end.p0(i64 8, ptr %4) #6
  %11 = getelementptr inbounds nuw %"class.arrow::util::Float16", ptr %2, i32 0, i32 0
  %12 = load i16, ptr %11, align 2
  ret i16 %12
}