; Function Attrs: mustprogress nofree norecurse nosync nounwind willreturn memory(none) uwtable
define i16 @_ZN5arrow4util7Float1610FromDoubleEd(double noundef %0) local_unnamed_addr #1 align 2 {
  %2 = bitcast double %0 to i64
  %3 = lshr i64 %2, 48
  %4 = trunc nuw i64 %3 to i16
  %5 = and i16 %4, -32768
  %6 = and i64 %2, 9218868437227405312
  %7 = lshr exact i64 %6, 52
  %8 = trunc nuw nsw i64 %7 to i16
  %9 = and i64 %2, 4503599627370495
  %10 = icmp samesign ugt i64 %6, 4674736413210574848
  br i1 %10, label %11, label %21

11:                                               ; preds = %1
  %or.cond.i = fcmp uno double %0, 0.000000e+00
  br i1 %or.cond.i, label %12, label %19

12:                                               ; preds = %11
  %13 = lshr i64 %9, 42
  %14 = trunc nuw nsw i64 %13 to i16
  %15 = icmp samesign ult i64 %9, 4398046511104
  %16 = select i1 %15, i16 1, i16 %14
  %17 = or disjoint i16 %5, %16
  %18 = or disjoint i16 %17, 31744
  br label %_ZN5arrow4util12_GLOBAL__N_115BinaryConverterImE10ToBinary16Em.exit

19:                                               ; preds = %11
  %20 = or disjoint i16 %5, 31744
  br label %_ZN5arrow4util12_GLOBAL__N_115BinaryConverterImE10ToBinary16Em.exit

21:                                               ; preds = %1
  %22 = icmp samesign ult i64 %6, 4544132024016830464
  br i1 %22, label %23, label %35

23:                                               ; preds = %21
  %24 = icmp samesign ult i64 %6, 4494592428115755008
  br i1 %24, label %_ZN5arrow4util12_GLOBAL__N_115BinaryConverterImE10ToBinary16Em.exit, label %25

25:                                               ; preds = %23
  %26 = or disjoint i64 %9, 4503599627370496
  %narrow.i = sub nsw i64 1009, %7
  %27 = and i64 %narrow.i, 4294967295
  %28 = lshr i64 %26, %27
  %29 = and i64 %28, 8796093022207
  %.not40.i = icmp eq i64 %29, 2199023255552
  %30 = and i64 %2, 2047
  %.not41.i = icmp eq i64 %30, 0
  %or.cond42.i = and i1 %.not41.i, %.not40.i
  %31 = add nuw nsw i64 %28, 2199023255552
  %.037.i = select i1 %or.cond42.i, i64 %28, i64 %31
  %32 = lshr i64 %.037.i, 42
  %33 = trunc nuw nsw i64 %32 to i16
  %34 = add nuw i16 %5, %33
  br label %_ZN5arrow4util12_GLOBAL__N_115BinaryConverterImE10ToBinary16Em.exit

35:                                               ; preds = %21
  %36 = shl i16 %8, 10
  %37 = and i64 %2, 8796093022207
  %.not.i = icmp eq i64 %37, 2199023255552
  %38 = add nuw nsw i64 %9, 2199023255552
  %spec.select.i = select i1 %.not.i, i64 %9, i64 %38
  %39 = lshr i64 %spec.select.i, 42
  %40 = trunc nuw nsw i64 %39 to i16
  %41 = or disjoint i16 %5, 16384
  %42 = add i16 %41, %36
  %43 = add i16 %42, %40
  br label %_ZN5arrow4util12_GLOBAL__N_115BinaryConverterImE10ToBinary16Em.exit

_ZN5arrow4util12_GLOBAL__N_115BinaryConverterImE10ToBinary16Em.exit: ; preds = %12, %19, %23, %25, %35
  %.0.i = phi i16 [ %18, %12 ], [ %20, %19 ], [ %34, %25 ], [ %43, %35 ], [ %5, %23 ]
  ret i16 %.0.i
}